; Function Attrs: mustprogress nofree norecurse nosync nounwind willreturn memory(none) uwtable
define hidden noundef zeroext i1 @_ZN4cvc58internal6theory5arith20isTranscendentalKindENS0_4kind6Kind_tE(i32 noundef %0) local_unnamed_addr #3 {
  %switch.tableidx = add i32 %0, -56
  %2 = icmp ult i32 %switch.tableidx, 29
  %switch.cast = trunc i32 %switch.tableidx to i29
  %switch.downshift = lshr i29 -268419073, %switch.cast
  %switch.masked = trunc i29 %switch.downshift to i1
  %.0 = select i1 %2, i1 %switch.masked, i1 false
  ret i1 %.0
}